target datalayout = "e-m:e-p270:32:32-p271:32:32-p272:64:64-i64:64-i128:128-f80:128-n8:16:32:64-S128"
target triple = "x86_64-pc-linux-gnu"

@_ZN16LogConfiguration8_outputsE = hidden global ptr null, align 8
@_ZN16LogConfiguration10_n_outputsE = hidden global i64 0, align 8

; Function Attrs: mustprogress nounwind uwtable
define hidden noundef i64 @_ZN16LogConfiguration11find_outputEPKc(ptr noundef %0) #1 align 2 {
  %2 = alloca i64, align 8
  %3 = alloca ptr, align 8
  %4 = alloca i64, align 8
  store ptr %0, ptr %3, align 8
  store i64 0, ptr %4, align 8
  br label %5

5:                                                ; preds = %24, %1
  %6 = load i64, ptr %4, align 8
  %7 = load i64, ptr @_ZN16LogConfiguration10_n_outputsE, align 8
  %8 = icmp ult i64 %6, %7
  br i1 %8, label %9, label %27

9:                                                ; preds = %5
  %10 = load ptr, ptr @_ZN16LogConfiguration8_outputsE, align 8
  %11 = load i64, ptr %4, align 8
  %12 = getelementptr inbounds ptr, ptr %10, i64 %11
  %13 = load ptr, ptr %12, align 8
  %14 = load ptr, ptr %13, align 8
  %15 = getelementptr inbounds ptr, ptr %14, i64 4
  %16 = load ptr, ptr %15, align 8
  %17 = call noundef ptr %16(ptr noundef nonnull align 8 dereferenceable(156) %13)
  %18 = load ptr, ptr %3, align 8
  %19 = call i32 @strcmp(ptr noundef %17, ptr noundef %18) #10
  %20 = icmp eq i32 %19, 0
  br i1 %20, label %21, label %23

21:                                               ; preds = %9
  %22 = load i64, ptr %4, align 8
  store i64 %22, ptr %2, align 8
  br label %28

23:                                               ; preds = %9
  br label %24

24:                                               ; preds = %23
  %25 = load i64, ptr %4, align 8
  %26 = add i64 %25, 1
  store i64 %26, ptr %4, align 8
  br label %5, !llvm.loop !14

27:                                               ; preds = %5
  store i64 -1, ptr %2, align 8
  br label %28

28:                                               ; preds = %27, %21
  %29 = load i64, ptr %2, align 8
  ret i64 %29
}