; Function Attrs: mustprogress nounwind uwtable
define hidden noundef i64 @_ZN16LogConfiguration11find_outputEPKc(ptr nocapture noundef readonly %0) local_unnamed_addr #0 align 2 {
  %2 = load i64, ptr @_ZN16LogConfiguration10_n_outputsE, align 8
  %.not = icmp eq i64 %2, 0
  br i1 %.not, label %._crit_edge, label %.lr.ph

.lr.ph:                                           ; preds = %1, %12
  %.06 = phi i64 [ %13, %12 ], [ 0, %1 ]
  %3 = load ptr, ptr @_ZN16LogConfiguration8_outputsE, align 8
  %4 = getelementptr inbounds ptr, ptr %3, i64 %.06
  %5 = load ptr, ptr %4, align 8
  %6 = load ptr, ptr %5, align 8
  %7 = getelementptr inbounds i8, ptr %6, i64 32
  %8 = load ptr, ptr %7, align 8
  %9 = tail call noundef ptr %8(ptr noundef nonnull align 8 dereferenceable(156) %5) #11
  %10 = tail call i32 @strcmp(ptr noundef nonnull dereferenceable(1) %9, ptr noundef nonnull dereferenceable(1) %0) #12
  %11 = icmp eq i32 %10, 0
  br i1 %11, label %._crit_edge, label %12

12:                                               ; preds = %.lr.ph
  %13 = add nuw i64 %.06, 1
  %14 = load i64, ptr @_ZN16LogConfiguration10_n_outputsE, align 8
  %15 = icmp ult i64 %13, %14
  br i1 %15, label %.lr.ph, label %._crit_edge, !llvm.loop !14

._crit_edge:                                      ; preds = %.lr.ph, %12, %1
  %.05 = phi i64 [ -1, %1 ], [ -1, %12 ], [ %.06, %.lr.ph ]
  ret i64 %.05
}